target datalayout = "e-m:e-p270:32:32-p271:32:32-p272:64:64-i64:64-i128:128-f80:128-n8:16:32:64-S128"
target triple = "x86_64-unknown-linux-gnu"

%"class.spacer::model_node" = type <{ %class.ref, ptr, %class.ptr_vector, ptr, ptr, i32, i32, i8, [7 x i8] }>
%class.ref = type { ptr }
%class.ptr_vector = type { %class.vector }
%class.vector = type { ptr }

; Function Attrs: mustprogress nounwind uwtable
define linkonce_odr hidden noundef zeroext i1 @_ZNK6spacer10model_node9is_closedEv(ptr noundef nonnull align 8 dereferenceable(49) %this) #5 comdat align 2 {
entry:
  %this.addr = alloca ptr, align 8
  store ptr %this, ptr %this.addr, align 8
  %this1 = load ptr, ptr %this.addr, align 8
  %m_closed = getelementptr inbounds %"class.spacer::model_node", ptr %this1, i32 0, i32 7
  %0 = load i8, ptr %m_closed, align 8
  %tobool = trunc i8 %0 to i1
  ret i1 %tobool
}

; Function Attrs: mustprogress nounwind uwtable
define linkonce_odr hidden noundef ptr @_ZNK6spacer10model_node6parentEv(ptr noundef nonnull align 8 dereferenceable(49) %this) #5 comdat align 2 {
entry:
  %this.addr = alloca ptr, align 8
  store ptr %this, ptr %this.addr, align 8
  %this1 = load ptr, ptr %this.addr, align 8
  %m_parent = getelementptr inbounds %"class.spacer::model_node", ptr %this1, i32 0, i32 1
  %0 = load ptr, ptr %m_parent, align 8
  ret ptr %0
}

; Function Attrs: mustprogress uwtable
define hidden void @_ZN6spacer10model_node8set_openEv(ptr noundef nonnull align 8 dereferenceable(49) %this) #4 align 2 {
entry:
  %this.addr = alloca ptr, align 8
  %p = alloca ptr, align 8
  store ptr %this, ptr %this.addr, align 8
  %this1 = load ptr, ptr %this.addr, align 8
  %m_closed = getelementptr inbounds %"class.spacer::model_node", ptr %this1, i32 0, i32 7
  store i8 0, ptr %m_closed, align 8
  %call = call noundef ptr @_ZNK6spacer10model_node6parentEv(ptr noundef nonnull align 8 dereferenceable(49) %this1)
  store ptr %call, ptr %p, align 8
  br label %while.cond

while.cond:                                       ; preds = %while.body, %entry
  %0 = load ptr, ptr %p, align 8
  %tobool = icmp ne ptr %0, null
  br i1 %tobool, label %land.rhs, label %land.end

land.rhs:                                         ; preds = %while.cond
  %1 = load ptr, ptr %p, align 8
  %call2 = call noundef zeroext i1 @_ZNK6spacer10model_node9is_closedEv(ptr noundef nonnull align 8 dereferenceable(49) %1)
  br label %land.end

land.end:                                         ; preds = %land.rhs, %while.cond
  %2 = phi i1 [ false, %while.cond ], [ %call2, %land.rhs ]
  br i1 %2, label %while.body, label %while.end

while.body:                                       ; preds = %land.end
  %3 = load ptr, ptr %p, align 8
  %m_closed3 = getelementptr inbounds %"class.spacer::model_node", ptr %3, i32 0, i32 7
  store i8 0, ptr %m_closed3, align 8
  %4 = load ptr, ptr %p, align 8
  %call4 = call noundef ptr @_ZNK6spacer10model_node6parentEv(ptr noundef nonnull align 8 dereferenceable(49) %4)
  store ptr %call4, ptr %p, align 8
  br label %while.cond, !llvm.loop !4

while.end:                                        ; preds = %land.end
  ret void
}