; Function Attrs: mustprogress nofree norecurse nosync nounwind memory(readwrite, inaccessiblemem: none) uwtable
define hidden void @_ZN6spacer10model_node8set_openEv(ptr nocapture noundef nonnull align 8 dereferenceable(49) %this) local_unnamed_addr #5 align 2 {
entry:
  %m_closed = getelementptr inbounds i8, ptr %this, i64 48
  store i8 0, ptr %m_closed, align 8
  %p.0.in5 = getelementptr inbounds i8, ptr %this, i64 8
  %p.06 = load ptr, ptr %p.0.in5, align 8
  %tobool.not7 = icmp eq ptr %p.06, null
  br i1 %tobool.not7, label %while.end, label %land.rhs

land.rhs:                                         ; preds = %entry, %while.body
  %p.08 = phi ptr [ %p.0, %while.body ], [ %p.06, %entry ]
  %m_closed.i = getelementptr inbounds i8, ptr %p.08, i64 48
  %0 = load i8, ptr %m_closed.i, align 8
  %1 = and i8 %0, 1
  %tobool.i.not = icmp eq i8 %1, 0
  br i1 %tobool.i.not, label %while.end, label %while.body

while.body:                                       ; preds = %land.rhs
  store i8 0, ptr %m_closed.i, align 8
  %p.0.in = getelementptr inbounds i8, ptr %p.08, i64 8
  %p.0 = load ptr, ptr %p.0.in, align 8
  %tobool.not = icmp eq ptr %p.0, null
  br i1 %tobool.not, label %while.end, label %land.rhs, !llvm.loop !4

while.end:                                        ; preds = %land.rhs, %while.body, %entry
  ret void
}